target datalayout = "e-m:e-p270:32:32-p271:32:32-p272:64:64-i64:64-i128:128-f80:128-n8:16:32:64-S128"
target triple = "x86_64-pc-linux-gnu"

%struct.WebPPicture = type { i32, i32, i32, i32, ptr, ptr, ptr, i32, i32, ptr, i32, [2 x i32], ptr, i32, [3 x i32], ptr, ptr, i32, ptr, ptr, i32, ptr, ptr, [3 x i32], ptr, ptr, [8 x i32], ptr, ptr, [2 x ptr] }

; Function Attrs: nounwind uwtable
define internal void @SnapTopLeftPosition(ptr noundef %0, ptr noundef %1, ptr noundef %2) #0 {
  %4 = alloca ptr, align 8
  %5 = alloca ptr, align 8
  %6 = alloca ptr, align 8
  store ptr %0, ptr %4, align 8, !tbaa !3
  store ptr %1, ptr %5, align 8, !tbaa !29
  store ptr %2, ptr %6, align 8, !tbaa !29
  %7 = load ptr, ptr %4, align 8, !tbaa !3
  %8 = getelementptr inbounds nuw %struct.WebPPicture, ptr %7, i32 0, i32 0
  %9 = load i32, ptr %8, align 8, !tbaa !8
  %10 = icmp ne i32 %9, 0
  br i1 %10, label %18, label %11

11:                                               ; preds = %3
  %12 = load ptr, ptr %5, align 8, !tbaa !29
  %13 = load i32, ptr %12, align 4, !tbaa !26
  %14 = and i32 %13, -2
  store i32 %14, ptr %12, align 4, !tbaa !26
  %15 = load ptr, ptr %6, align 8, !tbaa !29
  %16 = load i32, ptr %15, align 4, !tbaa !26
  %17 = and i32 %16, -2
  store i32 %17, ptr %15, align 4, !tbaa !26
  br label %18

18:                                               ; preds = %11, %3
  ret void
}

; Function Attrs: nounwind uwtable
define internal void @PictureGrabSpecs(ptr noundef %0, ptr noundef %1) #0 {
  %3 = alloca ptr, align 8
  %4 = alloca ptr, align 8
  store ptr %0, ptr %3, align 8, !tbaa !3
  store ptr %1, ptr %4, align 8, !tbaa !3
  %5 = load ptr, ptr %4, align 8, !tbaa !3
  %6 = load ptr, ptr %3, align 8, !tbaa !3
  call void @llvm.memcpy.p0.p0.i64(ptr align 8 %5, ptr align 8 %6, i64 256, i1 false), !tbaa.struct !25
  %7 = load ptr, ptr %4, align 8, !tbaa !3
  call void @WebPPictureResetBuffers(ptr noundef %7)
  ret void
}

; Function Attrs: nounwind uwtable
define internal i32 @AdjustAndCheckRectangle(ptr noundef %0, ptr noundef %1, ptr noundef %2, i32 noundef %3, i32 noundef %4) #0 {
  %6 = alloca i32, align 4
  %7 = alloca ptr, align 8
  %8 = alloca ptr, align 8
  %9 = alloca ptr, align 8
  %10 = alloca i32, align 4
  %11 = alloca i32, align 4
  store ptr %0, ptr %7, align 8, !tbaa !3
  store ptr %1, ptr %8, align 8, !tbaa !29
  store ptr %2, ptr %9, align 8, !tbaa !29
  store i32 %3, ptr %10, align 4, !tbaa !26
  store i32 %4, ptr %11, align 4, !tbaa !26
  %12 = load ptr, ptr %7, align 8, !tbaa !3
  %13 = load ptr, ptr %8, align 8, !tbaa !29
  %14 = load ptr, ptr %9, align 8, !tbaa !29
  call void @SnapTopLeftPosition(ptr noundef %12, ptr noundef %13, ptr noundef %14)
  %15 = load ptr, ptr %8, align 8, !tbaa !29
  %16 = load i32, ptr %15, align 4, !tbaa !26
  %17 = icmp slt i32 %16, 0
  br i1 %17, label %22, label %18

18:                                               ; preds = %5
  %19 = load ptr, ptr %9, align 8, !tbaa !29
  %20 = load i32, ptr %19, align 4, !tbaa !26
  %21 = icmp slt i32 %20, 0
  br i1 %21, label %22, label %23

22:                                               ; preds = %18, %5
  store i32 0, ptr %6, align 4
  br label %51

23:                                               ; preds = %18
  %24 = load i32, ptr %10, align 4, !tbaa !26
  %25 = icmp sle i32 %24, 0
  br i1 %25, label %29, label %26

26:                                               ; preds = %23
  %27 = load i32, ptr %11, align 4, !tbaa !26
  %28 = icmp sle i32 %27, 0
  br i1 %28, label %29, label %30

29:                                               ; preds = %26, %23
  store i32 0, ptr %6, align 4
  br label %51

30:                                               ; preds = %26
  %31 = load ptr, ptr %8, align 8, !tbaa !29
  %32 = load i32, ptr %31, align 4, !tbaa !26
  %33 = load i32, ptr %10, align 4, !tbaa !26
  %34 = add nsw i32 %32, %33
  %35 = load ptr, ptr %7, align 8, !tbaa !3
  %36 = getelementptr inbounds nuw %struct.WebPPicture, ptr %35, i32 0, i32 2
  %37 = load i32, ptr %36, align 8, !tbaa !16
  %38 = icmp sgt i32 %34, %37
  br i1 %38, label %39, label %40

39:                                               ; preds = %30
  store i32 0, ptr %6, align 4
  br label %51

40:                                               ; preds = %30
  %41 = load ptr, ptr %9, align 8, !tbaa !29
  %42 = load i32, ptr %41, align 4, !tbaa !26
  %43 = load i32, ptr %11, align 4, !tbaa !26
  %44 = add nsw i32 %42, %43
  %45 = load ptr, ptr %7, align 8, !tbaa !3
  %46 = getelementptr inbounds nuw %struct.WebPPicture, ptr %45, i32 0, i32 3
  %47 = load i32, ptr %46, align 4, !tbaa !17
  %48 = icmp sgt i32 %44, %47
  br i1 %48, label %49, label %50

49:                                               ; preds = %40
  store i32 0, ptr %6, align 4
  br label %51

50:                                               ; preds = %40
  store i32 1, ptr %6, align 4
  br label %51

51:                                               ; preds = %50, %49, %39, %29, %22
  %52 = load i32, ptr %6, align 4
  ret i32 %52
}

; Function Attrs: nounwind uwtable
define i32 @WebPPictureView(ptr noundef %0, i32 noundef %1, i32 noundef %2, i32 noundef %3, i32 noundef %4, ptr noundef %5) #0 {
  %7 = alloca i32, align 4
  %8 = alloca ptr, align 8
  %9 = alloca i32, align 4
  %10 = alloca i32, align 4
  %11 = alloca i32, align 4
  %12 = alloca i32, align 4
  %13 = alloca ptr, align 8
  store ptr %0, ptr %8, align 8, !tbaa !3
  store i32 %1, ptr %9, align 4, !tbaa !26
  store i32 %2, ptr %10, align 4, !tbaa !26
  store i32 %3, ptr %11, align 4, !tbaa !26
  store i32 %4, ptr %12, align 4, !tbaa !26
  store ptr %5, ptr %13, align 8, !tbaa !3
  %14 = load ptr, ptr %8, align 8, !tbaa !3
  %15 = icmp eq ptr %14, null
  br i1 %15, label %19, label %16

16:                                               ; preds = %6
  %17 = load ptr, ptr %13, align 8, !tbaa !3
  %18 = icmp eq ptr %17, null
  br i1 %18, label %19, label %20

19:                                               ; preds = %16, %6
  store i32 0, ptr %7, align 4
  br label %153

20:                                               ; preds = %16
  %21 = load ptr, ptr %8, align 8, !tbaa !3
  %22 = load i32, ptr %11, align 4, !tbaa !26
  %23 = load i32, ptr %12, align 4, !tbaa !26
  %24 = call i32 @AdjustAndCheckRectangle(ptr noundef %21, ptr noundef %9, ptr noundef %10, i32 noundef %22, i32 noundef %23)
  %25 = icmp ne i32 %24, 0
  br i1 %25, label %27, label %26

26:                                               ; preds = %20
  store i32 0, ptr %7, align 4
  br label %153

27:                                               ; preds = %20
  %28 = load ptr, ptr %8, align 8, !tbaa !3
  %29 = load ptr, ptr %13, align 8, !tbaa !3
  %30 = icmp ne ptr %28, %29
  br i1 %30, label %31, label %34

31:                                               ; preds = %27
  %32 = load ptr, ptr %8, align 8, !tbaa !3
  %33 = load ptr, ptr %13, align 8, !tbaa !3
  call void @PictureGrabSpecs(ptr noundef %32, ptr noundef %33)
  br label %34

34:                                               ; preds = %31, %27
  %35 = load i32, ptr %11, align 4, !tbaa !26
  %36 = load ptr, ptr %13, align 8, !tbaa !3
  %37 = getelementptr inbounds nuw %struct.WebPPicture, ptr %36, i32 0, i32 2
  store i32 %35, ptr %37, align 8, !tbaa !16
  %38 = load i32, ptr %12, align 4, !tbaa !26
  %39 = load ptr, ptr %13, align 8, !tbaa !3
  %40 = getelementptr inbounds nuw %struct.WebPPicture, ptr %39, i32 0, i32 3
  store i32 %38, ptr %40, align 4, !tbaa !17
  %41 = load ptr, ptr %8, align 8, !tbaa !3
  %42 = getelementptr inbounds nuw %struct.WebPPicture, ptr %41, i32 0, i32 0
  %43 = load i32, ptr %42, align 8, !tbaa !8
  %44 = icmp ne i32 %43, 0
  br i1 %44, label %131, label %45

45:                                               ; preds = %34
  %46 = load ptr, ptr %8, align 8, !tbaa !3
  %47 = getelementptr inbounds nuw %struct.WebPPicture, ptr %46, i32 0, i32 4
  %48 = load ptr, ptr %47, align 8, !tbaa !14
  %49 = load i32, ptr %10, align 4, !tbaa !26
  %50 = load ptr, ptr %8, align 8, !tbaa !3
  %51 = getelementptr inbounds nuw %struct.WebPPicture, ptr %50, i32 0, i32 7
  %52 = load i32, ptr %51, align 8, !tbaa !15
  %53 = mul nsw i32 %49, %52
  %54 = sext i32 %53 to i64
  %55 = getelementptr inbounds i8, ptr %48, i64 %54
  %56 = load i32, ptr %9, align 4, !tbaa !26
  %57 = sext i32 %56 to i64
  %58 = getelementptr inbounds i8, ptr %55, i64 %57
  %59 = load ptr, ptr %13, align 8, !tbaa !3
  %60 = getelementptr inbounds nuw %struct.WebPPicture, ptr %59, i32 0, i32 4
  store ptr %58, ptr %60, align 8, !tbaa !14
  %61 = load ptr, ptr %8, align 8, !tbaa !3
  %62 = getelementptr inbounds nuw %struct.WebPPicture, ptr %61, i32 0, i32 5
  %63 = load ptr, ptr %62, align 8, !tbaa !18
  %64 = load i32, ptr %10, align 4, !tbaa !26
  %65 = ashr i32 %64, 1
  %66 = load ptr, ptr %8, align 8, !tbaa !3
  %67 = getelementptr inbounds nuw %struct.WebPPicture, ptr %66, i32 0, i32 8
  %68 = load i32, ptr %67, align 4, !tbaa !19
  %69 = mul nsw i32 %65, %68
  %70 = sext i32 %69 to i64
  %71 = getelementptr inbounds i8, ptr %63, i64 %70
  %72 = load i32, ptr %9, align 4, !tbaa !26
  %73 = ashr i32 %72, 1
  %74 = sext i32 %73 to i64
  %75 = getelementptr inbounds i8, ptr %71, i64 %74
  %76 = load ptr, ptr %13, align 8, !tbaa !3
  %77 = getelementptr inbounds nuw %struct.WebPPicture, ptr %76, i32 0, i32 5
  store ptr %75, ptr %77, align 8, !tbaa !18
  %78 = load ptr, ptr %8, align 8, !tbaa !3
  %79 = getelementptr inbounds nuw %struct.WebPPicture, ptr %78, i32 0, i32 6
  %80 = load ptr, ptr %79, align 8, !tbaa !20
  %81 = load i32, ptr %10, align 4, !tbaa !26
  %82 = ashr i32 %81, 1
  %83 = load ptr, ptr %8, align 8, !tbaa !3
  %84 = getelementptr inbounds nuw %struct.WebPPicture, ptr %83, i32 0, i32 8
  %85 = load i32, ptr %84, align 4, !tbaa !19
  %86 = mul nsw i32 %82, %85
  %87 = sext i32 %86 to i64
  %88 = getelementptr inbounds i8, ptr %80, i64 %87
  %89 = load i32, ptr %9, align 4, !tbaa !26
  %90 = ashr i32 %89, 1
  %91 = sext i32 %90 to i64
  %92 = getelementptr inbounds i8, ptr %88, i64 %91
  %93 = load ptr, ptr %13, align 8, !tbaa !3
  %94 = getelementptr inbounds nuw %struct.WebPPicture, ptr %93, i32 0, i32 6
  store ptr %92, ptr %94, align 8, !tbaa !20
  %95 = load ptr, ptr %8, align 8, !tbaa !3
  %96 = getelementptr inbounds nuw %struct.WebPPicture, ptr %95, i32 0, i32 7
  %97 = load i32, ptr %96, align 8, !tbaa !15
  %98 = load ptr, ptr %13, align 8, !tbaa !3
  %99 = getelementptr inbounds nuw %struct.WebPPicture, ptr %98, i32 0, i32 7
  store i32 %97, ptr %99, align 8, !tbaa !15
  %100 = load ptr, ptr %8, align 8, !tbaa !3
  %101 = getelementptr inbounds nuw %struct.WebPPicture, ptr %100, i32 0, i32 8
  %102 = load i32, ptr %101, align 4, !tbaa !19
  %103 = load ptr, ptr %13, align 8, !tbaa !3
  %104 = getelementptr inbounds nuw %struct.WebPPicture, ptr %103, i32 0, i32 8
  store i32 %102, ptr %104, align 4, !tbaa !19
  %105 = load ptr, ptr %8, align 8, !tbaa !3
  %106 = getelementptr inbounds nuw %struct.WebPPicture, ptr %105, i32 0, i32 9
  %107 = load ptr, ptr %106, align 8, !tbaa !21
  %108 = icmp ne ptr %107, null
  br i1 %108, label %109, label %130

109:                                              ; preds = %45
  %110 = load ptr, ptr %8, align 8, !tbaa !3
  %111 = getelementptr inbounds nuw %struct.WebPPicture, ptr %110, i32 0, i32 9
  %112 = load ptr, ptr %111, align 8, !tbaa !21
  %113 = load i32, ptr %10, align 4, !tbaa !26
  %114 = load ptr, ptr %8, align 8, !tbaa !3
  %115 = getelementptr inbounds nuw %struct.WebPPicture, ptr %114, i32 0, i32 10
  %116 = load i32, ptr %115, align 8, !tbaa !22
  %117 = mul nsw i32 %113, %116
  %118 = sext i32 %117 to i64
  %119 = getelementptr inbounds i8, ptr %112, i64 %118
  %120 = load i32, ptr %9, align 4, !tbaa !26
  %121 = sext i32 %120 to i64
  %122 = getelementptr inbounds i8, ptr %119, i64 %121
  %123 = load ptr, ptr %13, align 8, !tbaa !3
  %124 = getelementptr inbounds nuw %struct.WebPPicture, ptr %123, i32 0, i32 9
  store ptr %122, ptr %124, align 8, !tbaa !21
  %125 = load ptr, ptr %8, align 8, !tbaa !3
  %126 = getelementptr inbounds nuw %struct.WebPPicture, ptr %125, i32 0, i32 10
  %127 = load i32, ptr %126, align 8, !tbaa !22
  %128 = load ptr, ptr %13, align 8, !tbaa !3
  %129 = getelementptr inbounds nuw %struct.WebPPicture, ptr %128, i32 0, i32 10
  store i32 %127, ptr %129, align 8, !tbaa !22
  br label %130

130:                                              ; preds = %109, %45
  br label %152

131:                                              ; preds = %34
  %132 = load ptr, ptr %8, align 8, !tbaa !3
  %133 = getelementptr inbounds nuw %struct.WebPPicture, ptr %132, i32 0, i32 12
  %134 = load ptr, ptr %133, align 8, !tbaa !23
  %135 = load i32, ptr %10, align 4, !tbaa !26
  %136 = load ptr, ptr %8, align 8, !tbaa !3
  %137 = getelementptr inbounds nuw %struct.WebPPicture, ptr %136, i32 0, i32 13
  %138 = load i32, ptr %137, align 8, !tbaa !24
  %139 = mul nsw i32 %135, %138
  %140 = sext i32 %139 to i64
  %141 = getelementptr inbounds i32, ptr %134, i64 %140
  %142 = load i32, ptr %9, align 4, !tbaa !26
  %143 = sext i32 %142 to i64
  %144 = getelementptr inbounds i32, ptr %141, i64 %143
  %145 = load ptr, ptr %13, align 8, !tbaa !3
  %146 = getelementptr inbounds nuw %struct.WebPPicture, ptr %145, i32 0, i32 12
  store ptr %144, ptr %146, align 8, !tbaa !23
  %147 = load ptr, ptr %8, align 8, !tbaa !3
  %148 = getelementptr inbounds nuw %struct.WebPPicture, ptr %147, i32 0, i32 13
  %149 = load i32, ptr %148, align 8, !tbaa !24
  %150 = load ptr, ptr %13, align 8, !tbaa !3
  %151 = getelementptr inbounds nuw %struct.WebPPicture, ptr %150, i32 0, i32 13
  store i32 %149, ptr %151, align 8, !tbaa !24
  br label %152

152:                                              ; preds = %131, %130
  store i32 1, ptr %7, align 4
  br label %153

153:                                              ; preds = %152, %26, %19
  %154 = load i32, ptr %7, align 4
  ret i32 %154
}