; Function Attrs: nounwind uwtable
define range(i32 0, 2) i32 @WebPPictureView(ptr noundef readonly captures(address) %0, i32 noundef %1, i32 noundef %2, i32 noundef %3, i32 noundef %4, ptr noundef %5) local_unnamed_addr #0 {
  %7 = icmp eq ptr %0, null
  %8 = icmp eq ptr %5, null
  %or.cond = or i1 %7, %8
  br i1 %or.cond, label %AdjustAndCheckRectangle.exit.thread, label %SnapTopLeftPosition.exit.i

SnapTopLeftPosition.exit.i:                       ; preds = %6
  %.val.i = load i32, ptr %0, align 8, !tbaa !17
  %.not.i.i = icmp eq i32 %.val.i, 0
  %9 = and i32 %1, -2
  %10 = and i32 %2, -2
  %.059 = select i1 %.not.i.i, i32 %9, i32 %1
  %.058 = select i1 %.not.i.i, i32 %10, i32 %2
  %11 = or i32 %.059, %.058
  %or.cond62.not = icmp sgt i32 %11, -1
  br i1 %or.cond62.not, label %12, label %AdjustAndCheckRectangle.exit.thread

12:                                               ; preds = %SnapTopLeftPosition.exit.i
  %13 = icmp slt i32 %3, 1
  %14 = icmp slt i32 %4, 1
  %or.cond.i = or i1 %13, %14
  br i1 %or.cond.i, label %AdjustAndCheckRectangle.exit.thread, label %15

15:                                               ; preds = %12
  %16 = add nuw nsw i32 %.059, %3
  %17 = getelementptr inbounds nuw i8, ptr %0, i64 8
  %18 = load i32, ptr %17, align 8, !tbaa !21
  %19 = icmp sgt i32 %16, %18
  br i1 %19, label %AdjustAndCheckRectangle.exit.thread, label %AdjustAndCheckRectangle.exit

AdjustAndCheckRectangle.exit:                     ; preds = %15
  %20 = add nuw nsw i32 %.058, %4
  %21 = getelementptr inbounds nuw i8, ptr %0, i64 12
  %22 = load i32, ptr %21, align 4, !tbaa !22
  %.not63 = icmp sgt i32 %20, %22
  br i1 %.not63, label %AdjustAndCheckRectangle.exit.thread, label %23

23:                                               ; preds = %AdjustAndCheckRectangle.exit
  %.not42 = icmp eq ptr %0, %5
  br i1 %.not42, label %25, label %24

24:                                               ; preds = %23
  tail call void @llvm.memcpy.p0.p0.i64(ptr noundef nonnull align 8 dereferenceable(256) %5, ptr noundef nonnull readonly align 8 dereferenceable(256) %0, i64 256, i1 false), !tbaa.struct !3
  tail call void @WebPPictureResetBuffers(ptr noundef nonnull %5) #5
  %.pre = load i32, ptr %0, align 8, !tbaa !17
  br label %25

25:                                               ; preds = %24, %23
  %26 = phi i32 [ %.pre, %24 ], [ %.val.i, %23 ]
  %27 = getelementptr inbounds nuw i8, ptr %5, i64 8
  store i32 %3, ptr %27, align 8, !tbaa !21
  %28 = getelementptr inbounds nuw i8, ptr %5, i64 12
  store i32 %4, ptr %28, align 4, !tbaa !22
  %.not43 = icmp eq i32 %26, 0
  %29 = zext nneg i32 %.059 to i64
  br i1 %.not43, label %30, label %68

30:                                               ; preds = %25
  %31 = getelementptr inbounds nuw i8, ptr %0, i64 16
  %32 = load ptr, ptr %31, align 8, !tbaa !19
  %33 = getelementptr inbounds nuw i8, ptr %0, i64 40
  %34 = load i32, ptr %33, align 8, !tbaa !20
  %35 = mul nsw i32 %34, %.058
  %36 = sext i32 %35 to i64
  %37 = getelementptr inbounds i8, ptr %32, i64 %36
  %38 = getelementptr inbounds nuw i8, ptr %37, i64 %29
  %39 = getelementptr inbounds nuw i8, ptr %5, i64 16
  store ptr %38, ptr %39, align 8, !tbaa !19
  %40 = getelementptr inbounds nuw i8, ptr %0, i64 24
  %41 = load ptr, ptr %40, align 8, !tbaa !23
  %42 = lshr i32 %.058, 1
  %43 = getelementptr inbounds nuw i8, ptr %0, i64 44
  %44 = load i32, ptr %43, align 4, !tbaa !24
  %45 = mul nsw i32 %44, %42
  %46 = sext i32 %45 to i64
  %47 = getelementptr inbounds i8, ptr %41, i64 %46
  %48 = lshr i32 %.059, 1
  %49 = zext nneg i32 %48 to i64
  %50 = getelementptr inbounds nuw i8, ptr %47, i64 %49
  %51 = getelementptr inbounds nuw i8, ptr %5, i64 24
  store ptr %50, ptr %51, align 8, !tbaa !23
  %52 = getelementptr inbounds nuw i8, ptr %0, i64 32
  %53 = load ptr, ptr %52, align 8, !tbaa !25
  %54 = getelementptr inbounds i8, ptr %53, i64 %46
  %55 = getelementptr inbounds nuw i8, ptr %54, i64 %49
  %56 = getelementptr inbounds nuw i8, ptr %5, i64 32
  store ptr %55, ptr %56, align 8, !tbaa !25
  %57 = getelementptr inbounds nuw i8, ptr %5, i64 40
  store i32 %34, ptr %57, align 8, !tbaa !20
  %58 = getelementptr inbounds nuw i8, ptr %5, i64 44
  store i32 %44, ptr %58, align 4, !tbaa !24
  %59 = getelementptr inbounds nuw i8, ptr %0, i64 48
  %60 = load ptr, ptr %59, align 8, !tbaa !26
  %.not44 = icmp eq ptr %60, null
  br i1 %.not44, label %AdjustAndCheckRectangle.exit.thread, label %61

61:                                               ; preds = %30
  %62 = getelementptr inbounds nuw i8, ptr %0, i64 56
  %63 = load i32, ptr %62, align 8, !tbaa !27
  %64 = mul nsw i32 %63, %.058
  %65 = sext i32 %64 to i64
  %66 = getelementptr inbounds i8, ptr %60, i64 %65
  %67 = getelementptr inbounds nuw i8, ptr %66, i64 %29
  br label %AdjustAndCheckRectangle.exit.thread.sink.split

68:                                               ; preds = %25
  %69 = getelementptr inbounds nuw i8, ptr %0, i64 72
  %70 = load ptr, ptr %69, align 8, !tbaa !28
  %71 = getelementptr inbounds nuw i8, ptr %0, i64 80
  %72 = load i32, ptr %71, align 8, !tbaa !29
  %73 = mul nsw i32 %72, %.058
  %74 = sext i32 %73 to i64
  %75 = getelementptr inbounds i32, ptr %70, i64 %74
  %76 = getelementptr inbounds nuw i32, ptr %75, i64 %29
  br label %AdjustAndCheckRectangle.exit.thread.sink.split

AdjustAndCheckRectangle.exit.thread.sink.split:   ; preds = %61, %68
  %.sink68 = phi i64 [ 72, %68 ], [ 48, %61 ]
  %.sink66 = phi ptr [ %76, %68 ], [ %67, %61 ]
  %.sink65 = phi i64 [ 80, %68 ], [ 56, %61 ]
  %.sink = phi i32 [ %72, %68 ], [ %63, %61 ]
  %77 = getelementptr inbounds nuw i8, ptr %5, i64 %.sink68
  store ptr %.sink66, ptr %77, align 8, !tbaa !14
  %78 = getelementptr inbounds nuw i8, ptr %5, i64 %.sink65
  store i32 %.sink, ptr %78, align 8, !tbaa !4
  br label %AdjustAndCheckRectangle.exit.thread

AdjustAndCheckRectangle.exit.thread:              ; preds = %AdjustAndCheckRectangle.exit.thread.sink.split, %15, %12, %SnapTopLeftPosition.exit.i, %30, %AdjustAndCheckRectangle.exit, %6
  %.0 = phi i32 [ 0, %6 ], [ 0, %AdjustAndCheckRectangle.exit ], [ 1, %30 ], [ 0, %SnapTopLeftPosition.exit.i ], [ 0, %12 ], [ 0, %15 ], [ 1, %AdjustAndCheckRectangle.exit.thread.sink.split ]
  ret i32 %.0
}